; ModuleID = '20/17.c'
source_filename = "20/17.c"
target datalayout = "e-m:e-p270:32:32-p271:32:32-p272:64:64-i64:64-f80:128-n8:16:32:64-S128"
target triple = "x86_64-pc-linux-gnu"

@.str = private unnamed_addr constant [3 x i8] c"%s\00", align 1
@.str.1 = private unnamed_addr constant [3 x i8] c"%c\00", align 1
@.str.2 = private unnamed_addr constant [2 x i8] c"\0A\00", align 1

; Function Attrs: noinline nounwind uwtable
define dso_local void @main() #0 {
  %1 = alloca i32, align 4
  %2 = alloca i32, align 4
  %3 = alloca i32, align 4
  %4 = alloca i32, align 4
  %5 = alloca [10 x i8], align 1
  %6 = alloca [3 x i8], align 1
  %7 = alloca i8, align 1
  store i32 0, i32* %3, align 4
  store i32 0, i32* %4, align 4
  br label %8

8:                                                ; preds = %106, %0
  %9 = load i32, i32* %3, align 4
  %10 = icmp ne i32 %9, 0
  br i1 %10, label %11, label %33

11:                                               ; preds = %8
  store i32 1, i32* %1, align 4
  br label %12

12:                                               ; preds = %29, %11
  %13 = call i32 @getchar()
  %14 = trunc i32 %13 to i8
  %15 = load i32, i32* %1, align 4
  %16 = sext i32 %15 to i64
  %17 = getelementptr inbounds [10 x i8], [10 x i8]* %5, i64 0, i64 %16
  store i8 %14, i8* %17, align 1
  %18 = load i32, i32* %1, align 4
  %19 = sext i32 %18 to i64
  %20 = getelementptr inbounds [10 x i8], [10 x i8]* %5, i64 0, i64 %19
  %21 = load i8, i8* %20, align 1
  %22 = sext i8 %21 to i32
  %23 = icmp eq i32 %22, 32
  br i1 %23, label %24, label %28

24:                                               ; preds = %12
  %25 = load i32, i32* %1, align 4
  %26 = sext i32 %25 to i64
  %27 = getelementptr inbounds [10 x i8], [10 x i8]* %5, i64 0, i64 %26
  store i8 0, i8* %27, align 1
  br label %32

28:                                               ; preds = %12
  br label %29

29:                                               ; preds = %28
  %30 = load i32, i32* %1, align 4
  %31 = add nsw i32 %30, 1
  store i32 %31, i32* %1, align 4
  br label %12

32:                                               ; preds = %24
  br label %36

33:                                               ; preds = %8
  %34 = getelementptr inbounds [10 x i8], [10 x i8]* %5, i64 0, i64 0
  %35 = call i32 (i8*, ...) @__isoc99_scanf(i8* getelementptr inbounds ([3 x i8], [3 x i8]* @.str, i64 0, i64 0), i8* %34)
  br label %36

36:                                               ; preds = %33, %32
  %37 = getelementptr inbounds [3 x i8], [3 x i8]* %6, i64 0, i64 0
  %38 = call i32 (i8*, ...) @__isoc99_scanf(i8* getelementptr inbounds ([3 x i8], [3 x i8]* @.str, i64 0, i64 0), i8* %37)
  %39 = call i32 @getchar()
  %40 = trunc i32 %39 to i8
  store i8 %40, i8* %7, align 1
  store i32 0, i32* %1, align 4
  br label %41

41:                                               ; preds = %63, %36
  %42 = load i32, i32* %1, align 4
  %43 = sext i32 %42 to i64
  %44 = getelementptr inbounds [10 x i8], [10 x i8]* %5, i64 0, i64 0
  %45 = call i64 @strlen(i8* %44) #3
  %46 = icmp ult i64 %43, %45
  br i1 %46, label %47, label %66

47:                                               ; preds = %41
  %48 = load i32, i32* %1, align 4
  %49 = sext i32 %48 to i64
  %50 = getelementptr inbounds [10 x i8], [10 x i8]* %5, i64 0, i64 %49
  %51 = load i8, i8* %50, align 1
  %52 = sext i8 %51 to i32
  %53 = load i32, i32* %4, align 4
  %54 = icmp sgt i32 %52, %53
  br i1 %54, label %55, label %62

55:                                               ; preds = %47
  %56 = load i32, i32* %1, align 4
  store i32 %56, i32* %2, align 4
  %57 = load i32, i32* %1, align 4
  %58 = sext i32 %57 to i64
  %59 = getelementptr inbounds [10 x i8], [10 x i8]* %5, i64 0, i64 %58
  %60 = load i8, i8* %59, align 1
  %61 = sext i8 %60 to i32
  store i32 %61, i32* %4, align 4
  br label %62

62:                                               ; preds = %55, %47
  br label %63

63:                                               ; preds = %62
  %64 = load i32, i32* %1, align 4
  %65 = add nsw i32 %64, 1
  store i32 %65, i32* %1, align 4
  br label %41

66:                                               ; preds = %41
  store i32 0, i32* %1, align 4
  br label %67

67:                                               ; preds = %78, %66
  %68 = load i32, i32* %1, align 4
  %69 = load i32, i32* %2, align 4
  %70 = icmp sle i32 %68, %69
  br i1 %70, label %71, label %81

71:                                               ; preds = %67
  %72 = load i32, i32* %1, align 4
  %73 = sext i32 %72 to i64
  %74 = getelementptr inbounds [10 x i8], [10 x i8]* %5, i64 0, i64 %73
  %75 = load i8, i8* %74, align 1
  %76 = sext i8 %75 to i32
  %77 = call i32 (i8*, ...) @printf(i8* getelementptr inbounds ([3 x i8], [3 x i8]* @.str.1, i64 0, i64 0), i32 %76)
  br label %78

78:                                               ; preds = %71
  %79 = load i32, i32* %1, align 4
  %80 = add nsw i32 %79, 1
  store i32 %80, i32* %1, align 4
  br label %67

81:                                               ; preds = %67
  %82 = getelementptr inbounds [3 x i8], [3 x i8]* %6, i64 0, i64 0
  %83 = call i32 (i8*, ...) @printf(i8* getelementptr inbounds ([3 x i8], [3 x i8]* @.str, i64 0, i64 0), i8* %82)
  %84 = load i32, i32* %2, align 4
  %85 = add nsw i32 %84, 1
  store i32 %85, i32* %1, align 4
  br label %86

86:                                               ; preds = %99, %81
  %87 = load i32, i32* %1, align 4
  %88 = sext i32 %87 to i64
  %89 = getelementptr inbounds [10 x i8], [10 x i8]* %5, i64 0, i64 0
  %90 = call i64 @strlen(i8* %89) #3
  %91 = icmp ult i64 %88, %90
  br i1 %91, label %92, label %102

92:                                               ; preds = %86
  %93 = load i32, i32* %1, align 4
  %94 = sext i32 %93 to i64
  %95 = getelementptr inbounds [10 x i8], [10 x i8]* %5, i64 0, i64 %94
  %96 = load i8, i8* %95, align 1
  %97 = sext i8 %96 to i32
  %98 = call i32 (i8*, ...) @printf(i8* getelementptr inbounds ([3 x i8], [3 x i8]* @.str.1, i64 0, i64 0), i32 %97)
  br label %99

99:                                               ; preds = %92
  %100 = load i32, i32* %1, align 4
  %101 = add nsw i32 %100, 1
  store i32 %101, i32* %1, align 4
  br label %86

102:                                              ; preds = %86
  %103 = call i32 (i8*, ...) @printf(i8* getelementptr inbounds ([2 x i8], [2 x i8]* @.str.2, i64 0, i64 0))
  store i32 0, i32* %4, align 4
  %104 = load i32, i32* %3, align 4
  %105 = add nsw i32 %104, 1
  store i32 %105, i32* %3, align 4
  br label %106

106:                                              ; preds = %102
  %107 = call i32 @getchar()
  %108 = trunc i32 %107 to i8
  %109 = getelementptr inbounds [10 x i8], [10 x i8]* %5, i64 0, i64 0
  store i8 %108, i8* %109, align 1
  %110 = sext i8 %108 to i32
  %111 = icmp ne i32 %110, -1
  br i1 %111, label %8, label %112

112:                                              ; preds = %106
  ret void
}

declare dso_local i32 @getchar() #1

declare dso_local i32 @__isoc99_scanf(i8*, ...) #1

; Function Attrs: nounwind readonly
declare dso_local i64 @strlen(i8*) #2

declare dso_local i32 @printf(i8*, ...) #1


!llvm.module.flags = !{!0}
!llvm.ident = !{!1}

!0 = !{i32 1, !"wchar_size", i32 4}
!1 = !{!"clang version 10.0.0-4ubuntu1 "}
